target datalayout = "e-m:e-p270:32:32-p271:32:32-p272:64:64-i64:64-i128:128-f80:128-n8:16:32:64-S128"
target triple = "x86_64-pc-linux-gnu"

%"struct.duckdb_lz4::LZ4_stream_t_internal" = type { [4096 x i32], ptr, ptr, i32, i32, i32 }

; Function Attrs: mustprogress nounwind uwtable
define void @_ZN10duckdb_lz421LZ4_attach_dictionaryEPNS_12LZ4_stream_uEPKS0_(ptr noundef %0, ptr noundef %1) #0 {
  %3 = alloca ptr, align 8
  %4 = alloca ptr, align 8
  %5 = alloca ptr, align 8
  store ptr %0, ptr %3, align 8, !tbaa !32
  store ptr %1, ptr %4, align 8, !tbaa !32
  call void @llvm.lifetime.start.p0(i64 8, ptr %5) #9
  %6 = load ptr, ptr %4, align 8, !tbaa !32
  %7 = icmp eq ptr %6, null
  br i1 %7, label %8, label %9

8:                                                ; preds = %2
  br label %11

9:                                                ; preds = %2
  %10 = load ptr, ptr %4, align 8, !tbaa !32
  br label %11

11:                                               ; preds = %9, %8
  %12 = phi ptr [ null, %8 ], [ %10, %9 ]
  store ptr %12, ptr %5, align 8, !tbaa !11
  %13 = load ptr, ptr %5, align 8, !tbaa !11
  %14 = icmp ne ptr %13, null
  br i1 %14, label %15, label %30

15:                                               ; preds = %11
  %16 = load ptr, ptr %3, align 8, !tbaa !32
  %17 = getelementptr inbounds nuw %"struct.duckdb_lz4::LZ4_stream_t_internal", ptr %16, i32 0, i32 3
  %18 = load i32, ptr %17, align 8, !tbaa !25
  %19 = icmp eq i32 %18, 0
  br i1 %19, label %20, label %23

20:                                               ; preds = %15
  %21 = load ptr, ptr %3, align 8, !tbaa !32
  %22 = getelementptr inbounds nuw %"struct.duckdb_lz4::LZ4_stream_t_internal", ptr %21, i32 0, i32 3
  store i32 65536, ptr %22, align 8, !tbaa !25
  br label %23

23:                                               ; preds = %20, %15
  %24 = load ptr, ptr %5, align 8, !tbaa !11
  %25 = getelementptr inbounds nuw %"struct.duckdb_lz4::LZ4_stream_t_internal", ptr %24, i32 0, i32 5
  %26 = load i32, ptr %25, align 8, !tbaa !31
  %27 = icmp eq i32 %26, 0
  br i1 %27, label %28, label %29

28:                                               ; preds = %23
  store ptr null, ptr %5, align 8, !tbaa !11
  br label %29

29:                                               ; preds = %28, %23
  br label %30

30:                                               ; preds = %29, %11
  %31 = load ptr, ptr %5, align 8, !tbaa !11
  %32 = load ptr, ptr %3, align 8, !tbaa !32
  %33 = getelementptr inbounds nuw %"struct.duckdb_lz4::LZ4_stream_t_internal", ptr %32, i32 0, i32 2
  store ptr %31, ptr %33, align 8, !tbaa !25
  call void @llvm.lifetime.end.p0(i64 8, ptr %5) #9
  ret void
}