; Function Attrs: mustprogress nofree norecurse nosync nounwind willreturn memory(argmem: readwrite) uwtable
define void @_ZN10duckdb_lz421LZ4_attach_dictionaryEPNS_12LZ4_stream_uEPKS0_(ptr noundef captures(none) initializes((16392, 16400)) %0, ptr noundef %1) local_unnamed_addr #7 {
  %.not = icmp eq ptr %1, null
  br i1 %.not, label %12, label %3

3:                                                ; preds = %2
  %4 = getelementptr inbounds nuw i8, ptr %0, i64 16400
  %5 = load i32, ptr %4, align 8, !tbaa !3
  %6 = icmp eq i32 %5, 0
  br i1 %6, label %7, label %8

7:                                                ; preds = %3
  store i32 65536, ptr %4, align 8, !tbaa !3
  br label %8

8:                                                ; preds = %7, %3
  %9 = getelementptr inbounds nuw i8, ptr %1, i64 16408
  %10 = load i32, ptr %9, align 8, !tbaa !15
  %11 = icmp eq i32 %10, 0
  %spec.store.select = select i1 %11, ptr null, ptr %1
  br label %12

12:                                               ; preds = %8, %2
  %.0 = phi ptr [ %spec.store.select, %8 ], [ null, %2 ]
  %13 = getelementptr inbounds nuw i8, ptr %0, i64 16392
  store ptr %.0, ptr %13, align 8, !tbaa !3
  ret void
}